target datalayout = "e-m:e-p270:32:32-p271:32:32-p272:64:64-i64:64-i128:128-f80:128-n8:16:32:64-S128"
target triple = "x86_64-pc-linux-gnu"

%struct.SDL_VideoDevice = type { ptr, ptr, ptr, ptr, ptr, ptr, ptr, ptr, ptr, ptr, ptr, ptr, ptr, ptr, ptr, ptr, ptr, ptr, ptr, ptr, ptr, ptr, ptr, ptr, ptr, ptr, ptr, ptr, ptr, ptr, ptr, ptr, ptr, ptr, ptr, ptr, ptr, ptr, ptr, ptr, ptr, ptr, ptr, ptr, ptr, ptr, ptr, ptr, ptr, ptr, ptr, ptr, ptr, ptr, ptr, ptr, ptr, ptr, ptr, ptr, ptr, ptr, ptr, ptr, ptr, ptr, ptr, ptr, ptr, ptr, ptr, ptr, ptr, ptr, ptr, ptr, ptr, ptr, ptr, ptr, ptr, ptr, ptr, ptr, ptr, ptr, ptr, ptr, ptr, ptr, ptr, ptr, ptr, ptr, ptr, ptr, ptr, i64, i8, i8, i8, ptr, i32, ptr, %struct.SDL_Rect, ptr, ptr, i32, ptr, ptr, ptr, ptr, i64, ptr, i8, i32, i32, %struct.anon, ptr, ptr, ptr, ptr, ptr, ptr, %struct.SDL_AtomicInt, %struct.SDL_AtomicInt, i8, %struct.anon.0, ptr, ptr, ptr, ptr, ptr }
%struct.SDL_Rect = type { i32, i32, i32, i32 }
%struct.anon = type { i32, i32, i32, i32, i32, i32, i32, i32, i32, i32, i32, i32, i32, i32, i32, i32, i32, i32, i32, i32, i32, i32, i32, i32, i32, i32, i32, i32, i32, [256 x i8], ptr }
%struct.SDL_AtomicInt = type { i32 }
%struct.anon.0 = type { ptr, ptr, i32, [256 x i8], ptr }
%struct.SDL_VideoData = type { i8, ptr, i32, ptr, ptr, ptr, ptr, i32, %struct.anon.1, ptr, ptr, ptr, ptr, ptr, ptr, ptr, ptr, ptr, ptr, ptr, ptr, ptr, ptr, ptr, ptr, ptr, ptr, ptr, ptr, ptr, ptr, %struct.wl_list, ptr, ptr, ptr, ptr, i32, i32, i8, i8 }
%struct.anon.1 = type { ptr }
%struct.wl_list = type { ptr, ptr }
%struct.SDL_WaylandSeat = type { ptr, ptr, ptr, ptr, ptr, %struct.wl_list, i32, i32, %struct.anon.2, %struct.anon.4, %struct.anon.7, %struct.anon.8, %struct.anon.9 }
%struct.anon.2 = type { ptr, ptr, ptr, ptr, ptr, %struct.SDL_WaylandKeyboardRepeat, i64, i16, i16, i32, i8, %struct.anon.3 }
%struct.SDL_WaylandKeyboardRepeat = type { i32, i32, i32, i8, i8, i32, i64, i64, i64, i32, [8 x i8] }
%struct.anon.3 = type { ptr, ptr, ptr, ptr, i32, i32, i32, i32, i32, i32, i32, i32, i32, i32, i32 }
%struct.anon.4 = type { ptr, ptr, ptr, ptr, ptr, ptr, ptr, ptr, i64, i32, i32, %struct.SDL_Point, i32, %struct.anon.5, %struct.anon.6 }
%struct.SDL_Point = type { i32, i32 }
%struct.anon.5 = type { i32, float, i32, float, i64, i32 }
%struct.anon.6 = type { ptr, ptr, ptr, i64, i64, i32 }
%struct.anon.7 = type { ptr, ptr, i64, %struct.wl_list }
%struct.anon.8 = type { ptr, %struct.SDL_Rect, i8, i8 }
%struct.anon.9 = type { ptr, %struct.wl_list }

@WAYLAND_wl_list_empty = external global ptr, align 8

; Function Attrs: nounwind uwtable
define hidden zeroext i1 @Wayland_SetClipboardData(ptr noundef %0) #0 {
  %2 = alloca ptr, align 8
  %3 = alloca ptr, align 8
  %4 = alloca ptr, align 8
  %5 = alloca i8, align 1
  %6 = alloca ptr, align 8
  %7 = alloca ptr, align 8
  store ptr %0, ptr %2, align 8
  call void @llvm.lifetime.start.p0(i64 8, ptr %3) #3
  %8 = load ptr, ptr %2, align 8
  %9 = getelementptr inbounds nuw %struct.SDL_VideoDevice, ptr %8, i32 0, i32 128
  %10 = load ptr, ptr %9, align 8
  store ptr %10, ptr %3, align 8
  call void @llvm.lifetime.start.p0(i64 8, ptr %4) #3
  %11 = load ptr, ptr %3, align 8
  %12 = getelementptr inbounds nuw %struct.SDL_VideoData, ptr %11, i32 0, i32 32
  %13 = load ptr, ptr %12, align 8
  store ptr %13, ptr %4, align 8
  call void @llvm.lifetime.start.p0(i64 1, ptr %5) #3
  store i8 0, ptr %5, align 1
  %14 = load ptr, ptr %4, align 8
  %15 = icmp ne ptr %14, null
  br i1 %15, label %28, label %16

16:                                               ; preds = %1
  %17 = load ptr, ptr @WAYLAND_wl_list_empty, align 8
  %18 = load ptr, ptr %3, align 8
  %19 = getelementptr inbounds nuw %struct.SDL_VideoData, ptr %18, i32 0, i32 31
  %20 = call i32 %17(ptr noundef %19)
  %21 = icmp ne i32 %20, 0
  br i1 %21, label %28, label %22

22:                                               ; preds = %16
  %23 = load ptr, ptr %3, align 8
  %24 = getelementptr inbounds nuw %struct.SDL_VideoData, ptr %23, i32 0, i32 31
  %25 = getelementptr inbounds nuw %struct.wl_list, ptr %24, i32 0, i32 1
  %26 = load ptr, ptr %25, align 8
  %27 = getelementptr inbounds i8, ptr %26, i64 -40
  store ptr %27, ptr %4, align 8
  br label %28

28:                                               ; preds = %22, %16, %1
  %29 = load ptr, ptr %4, align 8
  %30 = icmp ne ptr %29, null
  br i1 %30, label %31, label %82

31:                                               ; preds = %28
  %32 = load ptr, ptr %4, align 8
  %33 = getelementptr inbounds nuw %struct.SDL_WaylandSeat, ptr %32, i32 0, i32 2
  %34 = load ptr, ptr %33, align 8
  %35 = icmp ne ptr %34, null
  br i1 %35, label %36, label %82

36:                                               ; preds = %31
  call void @llvm.lifetime.start.p0(i64 8, ptr %6) #3
  %37 = load ptr, ptr %4, align 8
  %38 = getelementptr inbounds nuw %struct.SDL_WaylandSeat, ptr %37, i32 0, i32 2
  %39 = load ptr, ptr %38, align 8
  store ptr %39, ptr %6, align 8
  %40 = load ptr, ptr %2, align 8
  %41 = getelementptr inbounds nuw %struct.SDL_VideoDevice, ptr %40, i32 0, i32 108
  %42 = load ptr, ptr %41, align 8
  %43 = icmp ne ptr %42, null
  br i1 %43, label %44, label %77

44:                                               ; preds = %36
  %45 = load ptr, ptr %2, align 8
  %46 = getelementptr inbounds nuw %struct.SDL_VideoDevice, ptr %45, i32 0, i32 111
  %47 = load ptr, ptr %46, align 8
  %48 = icmp ne ptr %47, null
  br i1 %48, label %49, label %77

49:                                               ; preds = %44
  call void @llvm.lifetime.start.p0(i64 8, ptr %7) #3
  %50 = load ptr, ptr %2, align 8
  %51 = call ptr @Wayland_data_source_create(ptr noundef %50)
  store ptr %51, ptr %7, align 8
  %52 = load ptr, ptr %7, align 8
  %53 = load ptr, ptr %2, align 8
  %54 = getelementptr inbounds nuw %struct.SDL_VideoDevice, ptr %53, i32 0, i32 108
  %55 = load ptr, ptr %54, align 8
  %56 = load ptr, ptr %2, align 8
  %57 = getelementptr inbounds nuw %struct.SDL_VideoDevice, ptr %56, i32 0, i32 110
  %58 = load ptr, ptr %57, align 8
  %59 = load ptr, ptr %2, align 8
  %60 = getelementptr inbounds nuw %struct.SDL_VideoDevice, ptr %59, i32 0, i32 107
  %61 = load i32, ptr %60, align 8
  call void @Wayland_data_source_set_callback(ptr noundef %52, ptr noundef %55, ptr noundef %58, i32 noundef %61)
  %62 = load ptr, ptr %6, align 8
  %63 = load ptr, ptr %7, align 8
  %64 = load ptr, ptr %2, align 8
  %65 = getelementptr inbounds nuw %struct.SDL_VideoDevice, ptr %64, i32 0, i32 111
  %66 = load ptr, ptr %65, align 8
  %67 = load ptr, ptr %2, align 8
  %68 = getelementptr inbounds nuw %struct.SDL_VideoDevice, ptr %67, i32 0, i32 112
  %69 = load i64, ptr %68, align 8
  %70 = call zeroext i1 @Wayland_data_device_set_selection(ptr noundef %62, ptr noundef %63, ptr noundef %66, i64 noundef %69)
  %71 = zext i1 %70 to i8
  store i8 %71, ptr %5, align 1
  %72 = load i8, ptr %5, align 1, !range !3, !noundef !4
  %73 = trunc i8 %72 to i1
  br i1 %73, label %76, label %74

74:                                               ; preds = %49
  %75 = load ptr, ptr %7, align 8
  call void @Wayland_data_source_destroy(ptr noundef %75)
  br label %76

76:                                               ; preds = %74, %49
  call void @llvm.lifetime.end.p0(i64 8, ptr %7) #3
  br label %81

77:                                               ; preds = %44, %36
  %78 = load ptr, ptr %6, align 8
  %79 = call zeroext i1 @Wayland_data_device_clear_selection(ptr noundef %78)
  %80 = zext i1 %79 to i8
  store i8 %80, ptr %5, align 1
  br label %81

81:                                               ; preds = %77, %76
  call void @llvm.lifetime.end.p0(i64 8, ptr %6) #3
  br label %82

82:                                               ; preds = %81, %31, %28
  %83 = load i8, ptr %5, align 1, !range !3, !noundef !4
  %84 = trunc i8 %83 to i1
  call void @llvm.lifetime.end.p0(i64 1, ptr %5) #3
  call void @llvm.lifetime.end.p0(i64 8, ptr %4) #3
  call void @llvm.lifetime.end.p0(i64 8, ptr %3) #3
  ret i1 %84
}