; Function Attrs: nounwind uwtable
define hidden zeroext i1 @Wayland_SetClipboardData(ptr noundef %0) local_unnamed_addr #0 {
  %2 = getelementptr inbounds nuw i8, ptr %0, i64 1656
  %3 = load ptr, ptr %2, align 8
  %4 = getelementptr inbounds nuw i8, ptr %3, i64 264
  %5 = load ptr, ptr %4, align 8
  %.not = icmp eq ptr %5, null
  br i1 %.not, label %6, label %14

6:                                                ; preds = %1
  %7 = load ptr, ptr @WAYLAND_wl_list_empty, align 8
  %8 = getelementptr inbounds nuw i8, ptr %3, i64 248
  %9 = tail call i32 %7(ptr noundef nonnull %8) #4
  %.not26 = icmp eq i32 %9, 0
  br i1 %.not26, label %10, label %37

10:                                               ; preds = %6
  %11 = getelementptr inbounds nuw i8, ptr %3, i64 256
  %12 = load ptr, ptr %11, align 8
  %13 = getelementptr inbounds i8, ptr %12, i64 -40
  br label %14

14:                                               ; preds = %1, %10
  %.0.ph = phi ptr [ %13, %10 ], [ %5, %1 ]
  %15 = getelementptr inbounds nuw i8, ptr %.0.ph, i64 16
  %16 = load ptr, ptr %15, align 8
  %.not28 = icmp eq ptr %16, null
  br i1 %.not28, label %37, label %17

17:                                               ; preds = %14
  %18 = getelementptr inbounds nuw i8, ptr %0, i64 856
  %19 = load ptr, ptr %18, align 8
  %.not29 = icmp eq ptr %19, null
  br i1 %.not29, label %35, label %20

20:                                               ; preds = %17
  %21 = getelementptr inbounds nuw i8, ptr %0, i64 880
  %22 = load ptr, ptr %21, align 8
  %.not30 = icmp eq ptr %22, null
  br i1 %.not30, label %35, label %23

23:                                               ; preds = %20
  %24 = tail call ptr @Wayland_data_source_create(ptr noundef nonnull %0) #4
  %25 = load ptr, ptr %18, align 8
  %26 = getelementptr inbounds nuw i8, ptr %0, i64 872
  %27 = load ptr, ptr %26, align 8
  %28 = getelementptr inbounds nuw i8, ptr %0, i64 848
  %29 = load i32, ptr %28, align 8
  tail call void @Wayland_data_source_set_callback(ptr noundef %24, ptr noundef %25, ptr noundef %27, i32 noundef %29) #4
  %30 = load ptr, ptr %21, align 8
  %31 = getelementptr inbounds nuw i8, ptr %0, i64 888
  %32 = load i64, ptr %31, align 8
  %33 = tail call zeroext i1 @Wayland_data_device_set_selection(ptr noundef nonnull %16, ptr noundef %24, ptr noundef %30, i64 noundef %32) #4
  br i1 %33, label %37, label %34

34:                                               ; preds = %23
  tail call void @Wayland_data_source_destroy(ptr noundef %24) #4
  br label %37

35:                                               ; preds = %20, %17
  %36 = tail call zeroext i1 @Wayland_data_device_clear_selection(ptr noundef nonnull %16) #4
  br label %37

37:                                               ; preds = %6, %35, %34, %23, %14
  %.022 = phi i1 [ false, %14 ], [ %36, %35 ], [ false, %34 ], [ true, %23 ], [ false, %6 ]
  ret i1 %.022
}